target datalayout = "e-m:e-p270:32:32-p271:32:32-p272:64:64-i64:64-i128:128-f80:128-n8:16:32:64-S128"
target triple = "x86_64-pc-linux-gnu"

%struct.node_record = type { ptr, ptr, i16, i64, i64, ptr, ptr, ptr, i16, ptr, i16, i16, i32, i32, i64, ptr, i16, i16, ptr, ptr, ptr, ptr, ptr, i64, i64, ptr, ptr, ptr, ptr, i32, ptr, ptr, i64, i64, i32, ptr, i64, ptr, i32, i16, ptr, ptr, i32, ptr, i32, i8, ptr, i32, i16, i16, ptr, i16, i64, i16, i64, ptr, i64, i32, i16, i64, i16, ptr, i16, i64, ptr, i64, i16, i32, i16, ptr, ptr, ptr, i16, i32, i16, i16, i32, ptr, i16, i32 }

; Function Attrs: nounwind uwtable
define dso_local void @reset_node_active_features(ptr noundef %0) #0 {
  %2 = alloca ptr, align 8
  store ptr %0, ptr %2, align 8
  %3 = load ptr, ptr %2, align 8
  %4 = getelementptr inbounds nuw %struct.node_record, ptr %3, i32 0, i32 22
  call void @slurm_xfree(ptr noundef %4)
  %5 = load ptr, ptr %2, align 8
  %6 = getelementptr inbounds nuw %struct.node_record, ptr %5, i32 0, i32 21
  %7 = load ptr, ptr %6, align 8
  %8 = call ptr @filter_out_changeable_features(ptr noundef %7)
  %9 = load ptr, ptr %2, align 8
  %10 = getelementptr inbounds nuw %struct.node_record, ptr %9, i32 0, i32 22
  store ptr %8, ptr %10, align 8
  %11 = load ptr, ptr %2, align 8
  %12 = getelementptr inbounds nuw %struct.node_record, ptr %11, i32 0, i32 37
  %13 = load ptr, ptr %12, align 8
  %14 = load ptr, ptr %2, align 8
  %15 = getelementptr inbounds nuw %struct.node_record, ptr %14, i32 0, i32 22
  %16 = load ptr, ptr %15, align 8
  %17 = call i32 @update_node_active_features(ptr noundef %13, ptr noundef %16, i32 noundef 0)
  ret void
}