; Function Attrs: nounwind uwtable
define dso_local void @reset_node_active_features(ptr noundef %0) local_unnamed_addr #0 {
  %2 = getelementptr inbounds nuw i8, ptr %0, i64 152
  tail call void @slurm_xfree(ptr noundef nonnull %2) #15
  %3 = getelementptr inbounds nuw i8, ptr %0, i64 144
  %4 = load ptr, ptr %3, align 8
  %5 = tail call ptr @filter_out_changeable_features(ptr noundef %4)
  store ptr %5, ptr %2, align 8
  %6 = getelementptr inbounds nuw i8, ptr %0, i64 272
  %7 = load ptr, ptr %6, align 8
  %8 = tail call i32 @update_node_active_features(ptr noundef %7, ptr noundef %5, i32 noundef 0)
  ret void
}